; Function Attrs: mustprogress uwtable
define range(i32 -1, 1) i32 @LGBM_DatasetMarkFinished(ptr noundef nonnull %0) local_unnamed_addr #5 personality ptr @__gxx_personality_v0 {
  %2 = alloca %"class.std::__cxx11::basic_string", align 8
  %3 = alloca %"class.std::allocator", align 1
  invoke void @_ZN8LightGBM7Dataset10FinishLoadEv(ptr noundef nonnull align 8 dereferenceable(864) %0)
          to label %39 unwind label %4

4:                                                ; preds = %1
  %5 = landingpad { ptr, i32 }
          catch ptr @_ZTISt9exception
          catch ptr @_ZTINSt7__cxx1112basic_stringIcSt11char_traitsIcESaIcEEE
          catch ptr null
  %6 = extractvalue { ptr, i32 } %5, 0
  %7 = extractvalue { ptr, i32 } %5, 1
  %8 = tail call i32 @llvm.eh.typeid.for.p0(ptr nonnull @_ZTISt9exception) #26
  %9 = icmp eq i32 %7, %8
  br i1 %9, label %10, label %18

10:                                               ; preds = %4
  %11 = tail call ptr @__cxa_begin_catch(ptr %6) #26
  %12 = load ptr, ptr %11, align 8, !tbaa !14
  %13 = getelementptr inbounds nuw i8, ptr %12, i64 16
  %14 = load ptr, ptr %13, align 8
  %15 = tail call noundef ptr %14(ptr noundef nonnull align 8 dereferenceable(8) %11) #26
  %16 = tail call noundef nonnull align 16 ptr @llvm.threadlocal.address.p0(ptr align 16 @_ZZL12LastErrorMsgvE7err_msg)
  %17 = tail call i32 (ptr, i64, ptr, ...) @snprintf(ptr noundef nonnull dereferenceable(1) %16, i64 noundef 512, ptr noundef nonnull @.str.1, ptr noundef %15) #26
  tail call void @__cxa_end_catch()
  br label %39

18:                                               ; preds = %4
  %19 = tail call i32 @llvm.eh.typeid.for.p0(ptr nonnull @_ZTINSt7__cxx1112basic_stringIcSt11char_traitsIcESaIcEEE) #26
  %20 = icmp eq i32 %7, %19
  %21 = tail call ptr @__cxa_begin_catch(ptr %6) #26
  br i1 %20, label %22, label %26

22:                                               ; preds = %18
  %23 = load ptr, ptr %21, align 8, !tbaa !13
  %24 = tail call noundef nonnull align 16 ptr @llvm.threadlocal.address.p0(ptr align 16 @_ZZL12LastErrorMsgvE7err_msg)
  %25 = tail call i32 (ptr, i64, ptr, ...) @snprintf(ptr noundef nonnull dereferenceable(1) %24, i64 noundef 512, ptr noundef nonnull @.str.1, ptr noundef %23) #26
  tail call void @__cxa_end_catch()
  br label %39

26:                                               ; preds = %18
  call void @llvm.lifetime.start.p0(i64 32, ptr nonnull %2) #26
  call void @llvm.lifetime.start.p0(i64 1, ptr nonnull %3) #26
  invoke void @_ZNSt7__cxx1112basic_stringIcSt11char_traitsIcESaIcEEC2EPKcRKS3_(ptr noundef nonnull align 8 dereferenceable(32) %2, ptr noundef nonnull @.str, ptr noundef nonnull align 1 dereferenceable(1) %3)
          to label %27 unwind label %37

27:                                               ; preds = %26
  %28 = load ptr, ptr %2, align 8, !tbaa !13
  %29 = call noundef nonnull align 16 ptr @llvm.threadlocal.address.p0(ptr align 16 @_ZZL12LastErrorMsgvE7err_msg)
  %30 = call i32 (ptr, i64, ptr, ...) @snprintf(ptr noundef nonnull dereferenceable(1) %29, i64 noundef 512, ptr noundef nonnull @.str.1, ptr noundef %28) #26
  %31 = load ptr, ptr %2, align 8, !tbaa !13
  %32 = getelementptr inbounds nuw i8, ptr %2, i64 16
  %33 = icmp eq ptr %31, %32
  br i1 %33, label %_ZNKSt7__cxx1112basic_stringIcSt11char_traitsIcESaIcEE11_M_is_localEv.exit.thread.i.i, label %_ZNKSt7__cxx1112basic_stringIcSt11char_traitsIcESaIcEE11_M_is_localEv.exit.i.i

_ZNKSt7__cxx1112basic_stringIcSt11char_traitsIcESaIcEE11_M_is_localEv.exit.thread.i.i: ; preds = %27
  %34 = getelementptr inbounds nuw i8, ptr %2, i64 8
  %35 = load i64, ptr %34, align 8, !tbaa !4
  %36 = icmp ult i64 %35, 16
  call void @llvm.assume(i1 %36)
  br label %_ZNSt7__cxx1112basic_stringIcSt11char_traitsIcESaIcEED2Ev.exit

_ZNKSt7__cxx1112basic_stringIcSt11char_traitsIcESaIcEE11_M_is_localEv.exit.i.i: ; preds = %27
  call void @_ZdlPv(ptr noundef %31) #39
  br label %_ZNSt7__cxx1112basic_stringIcSt11char_traitsIcESaIcEED2Ev.exit

_ZNSt7__cxx1112basic_stringIcSt11char_traitsIcESaIcEED2Ev.exit: ; preds = %_ZNKSt7__cxx1112basic_stringIcSt11char_traitsIcESaIcEE11_M_is_localEv.exit.thread.i.i, %_ZNKSt7__cxx1112basic_stringIcSt11char_traitsIcESaIcEE11_M_is_localEv.exit.i.i
  call void @llvm.lifetime.end.p0(i64 1, ptr nonnull %3) #26
  call void @llvm.lifetime.end.p0(i64 32, ptr nonnull %2) #26
  call void @__cxa_end_catch()
  br label %39

37:                                               ; preds = %26
  %38 = landingpad { ptr, i32 }
          cleanup
  call void @llvm.lifetime.end.p0(i64 1, ptr nonnull %3) #26
  call void @llvm.lifetime.end.p0(i64 32, ptr nonnull %2) #26
  invoke void @__cxa_end_catch()
          to label %40 unwind label %41

39:                                               ; preds = %1, %_ZNSt7__cxx1112basic_stringIcSt11char_traitsIcESaIcEED2Ev.exit, %22, %10
  %.0 = phi i32 [ -1, %10 ], [ -1, %22 ], [ -1, %_ZNSt7__cxx1112basic_stringIcSt11char_traitsIcESaIcEED2Ev.exit ], [ 0, %1 ]
  ret i32 %.0

40:                                               ; preds = %37
  resume { ptr, i32 } %38

41:                                               ; preds = %37
  %42 = landingpad { ptr, i32 }
          catch ptr null
  %43 = extractvalue { ptr, i32 } %42, 0
  call void @__clang_call_terminate(ptr %43) #40
  unreachable
}